target datalayout = "e-m:e-p270:32:32-p271:32:32-p272:64:64-i64:64-i128:128-f80:128-n8:16:32:64-S128"
target triple = "x86_64-pc-linux-gnu"

%struct.PROV_CHACHA20_POLY1305_CTX = type { %struct.prov_cipher_ctx_st, %struct.PROV_CHACHA20_CTX, %struct.poly1305_context, [3 x i32], [16 x i8], [16 x i8], %struct.anon.1, i8, i64, i64, i64 }
%struct.prov_cipher_ctx_st = type { [16 x i8], [16 x i8], [16 x i8], ptr, %union.anon, i32, i64, i64, i64, i64, i32, i8, i32, ptr, i32, i64, i32, i64, i32, ptr, ptr, ptr }
%union.anon = type { ptr }
%struct.PROV_CHACHA20_CTX = type { %struct.prov_cipher_ctx_st, %union.anon.0, [4 x i32], [64 x i8], i32 }
%union.anon.0 = type { double, [24 x i8] }
%struct.poly1305_context = type { [24 x double], [4 x i32], [16 x i8], i64, %struct.anon }
%struct.anon = type { ptr, ptr }
%struct.anon.1 = type { i64, i64 }

@.str = private unnamed_addr constant [72 x i8] c"../openssl/providers/implementations/ciphers/cipher_chacha20_poly1305.c\00", align 1

; Function Attrs: nounwind uwtable
define internal ptr @chacha20_poly1305_newctx(ptr noundef %0) #0 {
  %2 = alloca ptr, align 8
  %3 = alloca ptr, align 8
  %4 = alloca ptr, align 8
  %5 = alloca i32, align 4
  store ptr %0, ptr %3, align 8, !tbaa !3
  call void @llvm.lifetime.start.p0(i64 8, ptr %4) #5
  %6 = call i32 @ossl_prov_is_running()
  %7 = icmp ne i32 %6, 0
  br i1 %7, label %9, label %8

8:                                                ; preds = %1
  store ptr null, ptr %2, align 8
  store i32 1, ptr %5, align 4
  br label %23

9:                                                ; preds = %1
  %10 = call noalias ptr @CRYPTO_zalloc(i64 noundef 848, ptr noundef @.str, i32 noundef 46)
  store ptr %10, ptr %4, align 8, !tbaa !3
  %11 = load ptr, ptr %4, align 8, !tbaa !3
  %12 = icmp ne ptr %11, null
  br i1 %12, label %13, label %21

13:                                               ; preds = %9
  %14 = load ptr, ptr %4, align 8, !tbaa !3
  %15 = getelementptr inbounds nuw %struct.PROV_CHACHA20_POLY1305_CTX, ptr %14, i32 0, i32 0
  %16 = call ptr @ossl_prov_cipher_hw_chacha20_poly1305(i64 noundef 256)
  call void @ossl_cipher_generic_initkey(ptr noundef %15, i64 noundef 256, i64 noundef 8, i64 noundef 96, i32 noundef 0, i64 noundef 3, ptr noundef %16, ptr noundef null)
  %17 = load ptr, ptr %4, align 8, !tbaa !3
  %18 = getelementptr inbounds nuw %struct.PROV_CHACHA20_POLY1305_CTX, ptr %17, i32 0, i32 9
  store i64 -1, ptr %18, align 8, !tbaa !7
  %19 = load ptr, ptr %4, align 8, !tbaa !3
  %20 = getelementptr inbounds nuw %struct.PROV_CHACHA20_POLY1305_CTX, ptr %19, i32 0, i32 1
  call void @ossl_chacha20_initctx(ptr noundef %20)
  br label %21

21:                                               ; preds = %13, %9
  %22 = load ptr, ptr %4, align 8, !tbaa !3
  store ptr %22, ptr %2, align 8
  store i32 1, ptr %5, align 4
  br label %23

23:                                               ; preds = %21, %8
  call void @llvm.lifetime.end.p0(i64 8, ptr %4) #5
  %24 = load ptr, ptr %2, align 8
  ret ptr %24
}