; Function Attrs: nounwind uwtable
define internal ptr @chacha20_poly1305_newctx(ptr readnone captures(none) %0) #0 {
  %2 = tail call i32 @ossl_prov_is_running() #5
  %.not = icmp eq i32 %2, 0
  br i1 %.not, label %9, label %3

3:                                                ; preds = %1
  %4 = tail call noalias ptr @CRYPTO_zalloc(i64 noundef 848, ptr noundef nonnull @.str, i32 noundef 46) #5
  %.not7 = icmp eq ptr %4, null
  br i1 %.not7, label %9, label %5

5:                                                ; preds = %3
  %6 = tail call ptr @ossl_prov_cipher_hw_chacha20_poly1305(i64 noundef 256) #5
  tail call void @ossl_cipher_generic_initkey(ptr noundef nonnull %4, i64 noundef 256, i64 noundef 8, i64 noundef 96, i32 noundef 0, i64 noundef 3, ptr noundef %6, ptr noundef null) #5
  %7 = getelementptr inbounds nuw i8, ptr %4, i64 832
  store i64 -1, ptr %7, align 8, !tbaa !3
  %8 = getelementptr inbounds nuw i8, ptr %4, i64 192
  tail call void @ossl_chacha20_initctx(ptr noundef nonnull %8) #5
  br label %9

9:                                                ; preds = %3, %5, %1
  %.0 = phi ptr [ null, %1 ], [ %4, %5 ], [ null, %3 ]
  ret ptr %.0
}